; Function Attrs: mustprogress nofree norecurse nosync nounwind memory(write, argmem: readwrite, inaccessiblemem: none) uwtable
define internal fastcc noundef i64 @_ZN11duckdb_zstdL35HUF_compress4X_usingCTable_internalEPvmPKvmPKmi(ptr noundef %0, i64 noundef %1, ptr noundef %2, i64 noundef %3, ptr noundef %4, i32 noundef %5) unnamed_addr #8 {
  %7 = add i64 %3, 3
  %8 = lshr i64 %7, 2
  %9 = getelementptr inbounds nuw i8, ptr %2, i64 %3
  %10 = icmp ult i64 %1, 17
  %11 = icmp ult i64 %3, 12
  %or.cond107 = or i1 %10, %11
  br i1 %or.cond107, label %.thread, label %12

12:                                               ; preds = %6
  %13 = getelementptr inbounds nuw i8, ptr %0, i64 %1
  %14 = getelementptr inbounds nuw i8, ptr %0, i64 6
  %15 = ptrtoint ptr %13 to i64
  %gepdiff = add nsw i64 %1, -6
  %16 = tail call fastcc noundef i64 @_ZN11duckdb_zstdL35HUF_compress1X_usingCTable_internalEPvmPKvmPKmi(ptr noundef nonnull %14, i64 noundef %gepdiff, ptr noundef %2, i64 noundef %8, ptr noundef %4, i32 noundef %5)
  %17 = icmp ult i64 %16, -119
  br i1 %17, label %18, label %.thread

18:                                               ; preds = %12
  %19 = add i64 %16, -65536
  %or.cond = icmp ult i64 %19, -65535
  br i1 %or.cond, label %.thread, label %20

20:                                               ; preds = %18
  %21 = trunc nuw i64 %16 to i16
  store i16 %21, ptr %0, align 1, !tbaa !16
  %22 = getelementptr inbounds nuw i8, ptr %14, i64 %16
  %23 = getelementptr inbounds nuw i8, ptr %2, i64 %8
  %24 = ptrtoint ptr %22 to i64
  %25 = sub i64 %15, %24
  %26 = tail call fastcc noundef i64 @_ZN11duckdb_zstdL35HUF_compress1X_usingCTable_internalEPvmPKvmPKmi(ptr noundef nonnull %22, i64 noundef %25, ptr noundef %23, i64 noundef %8, ptr noundef %4, i32 noundef %5)
  %27 = icmp ult i64 %26, -119
  br i1 %27, label %28, label %.thread

28:                                               ; preds = %20
  %29 = add i64 %26, -65536
  %or.cond6 = icmp ult i64 %29, -65535
  br i1 %or.cond6, label %.thread, label %30

30:                                               ; preds = %28
  %31 = getelementptr inbounds nuw i8, ptr %0, i64 2
  %32 = trunc nuw i64 %26 to i16
  store i16 %32, ptr %31, align 1, !tbaa !16
  %33 = getelementptr inbounds nuw i8, ptr %22, i64 %26
  %34 = getelementptr inbounds nuw i8, ptr %23, i64 %8
  %35 = ptrtoint ptr %33 to i64
  %36 = sub i64 %15, %35
  %37 = tail call fastcc noundef i64 @_ZN11duckdb_zstdL35HUF_compress1X_usingCTable_internalEPvmPKvmPKmi(ptr noundef nonnull %33, i64 noundef %36, ptr noundef %34, i64 noundef %8, ptr noundef %4, i32 noundef %5)
  %38 = icmp ult i64 %37, -119
  br i1 %38, label %39, label %.thread

39:                                               ; preds = %30
  %40 = add i64 %37, -65536
  %or.cond8 = icmp ult i64 %40, -65535
  br i1 %or.cond8, label %.thread, label %41

41:                                               ; preds = %39
  %42 = getelementptr inbounds nuw i8, ptr %0, i64 4
  %43 = trunc nuw i64 %37 to i16
  store i16 %43, ptr %42, align 1, !tbaa !16
  %44 = getelementptr inbounds nuw i8, ptr %33, i64 %37
  %45 = getelementptr inbounds nuw i8, ptr %34, i64 %8
  %46 = ptrtoint ptr %44 to i64
  %47 = sub i64 %15, %46
  %48 = ptrtoint ptr %9 to i64
  %49 = ptrtoint ptr %45 to i64
  %50 = sub i64 %48, %49
  %51 = tail call fastcc noundef i64 @_ZN11duckdb_zstdL35HUF_compress1X_usingCTable_internalEPvmPKvmPKmi(ptr noundef nonnull %44, i64 noundef %47, ptr noundef %45, i64 noundef %50, ptr noundef %4, i32 noundef %5)
  %52 = icmp ult i64 %51, -119
  br i1 %52, label %53, label %.thread

53:                                               ; preds = %41
  %54 = add i64 %51, -65536
  %or.cond10 = icmp ult i64 %54, -65535
  br i1 %or.cond10, label %.thread, label %55

55:                                               ; preds = %53
  %56 = getelementptr inbounds nuw i8, ptr %44, i64 %51
  %57 = ptrtoint ptr %56 to i64
  %58 = ptrtoint ptr %0 to i64
  %59 = sub i64 %57, %58
  br label %.thread

.thread:                                          ; preds = %53, %41, %39, %30, %28, %20, %18, %12, %6, %55
  %.0 = phi i64 [ %59, %55 ], [ 0, %6 ], [ 0, %18 ], [ %16, %12 ], [ 0, %28 ], [ %26, %20 ], [ 0, %39 ], [ %37, %30 ], [ 0, %53 ], [ %51, %41 ]
  ret i64 %.0
}